; Function Attrs: mustprogress nounwind uwtable
define hidden void @_ZN23default_expr2polynomialD2Ev(ptr nocapture noundef nonnull align 8 dereferenceable(24) %this) unnamed_addr #4 align 2 personality ptr @__gxx_personality_v0 {
entry:
  store ptr getelementptr inbounds ({ [6 x ptr] }, ptr @_ZTV23default_expr2polynomial, i64 0, i32 0, i64 2), ptr %this, align 8
  %m_is_int = getelementptr inbounds i8, ptr %this, i64 16
  %0 = load ptr, ptr %m_is_int, align 8
  %tobool.not.i.i.i = icmp eq ptr %0, null
  br i1 %tobool.not.i.i.i, label %_ZN7svectorIbjED2Ev.exit, label %if.then.i.i.i

if.then.i.i.i:                                    ; preds = %entry
  %add.ptr.i.i.i.i = getelementptr inbounds i8, ptr %0, i64 -8
  invoke void @_ZN6memory10deallocateEPv(ptr noundef nonnull %add.ptr.i.i.i.i)
          to label %_ZN7svectorIbjED2Ev.exit unwind label %terminate.lpad.i.i

terminate.lpad.i.i:                               ; preds = %if.then.i.i.i
  %1 = landingpad { ptr, i32 }
          catch ptr null
  %2 = extractvalue { ptr, i32 } %1, 0
  tail call void @__clang_call_terminate(ptr %2) #19
  unreachable

_ZN7svectorIbjED2Ev.exit:                         ; preds = %entry, %if.then.i.i.i
  store ptr getelementptr inbounds ({ [6 x ptr] }, ptr @_ZTV15expr2polynomial, i64 0, i32 0, i64 2), ptr %this, align 8
  %m_imp.i = getelementptr inbounds i8, ptr %this, i64 8
  %3 = load ptr, ptr %m_imp.i, align 8
  %cmp.i.i = icmp eq ptr %3, null
  br i1 %cmp.i.i, label %_ZN15expr2polynomialD2Ev.exit, label %if.end.i.i

if.end.i.i:                                       ; preds = %_ZN7svectorIbjED2Ev.exit
  tail call void @_ZN15expr2polynomial3impD2Ev(ptr noundef nonnull align 8 dereferenceable(186) %3) #18
  invoke void @_ZN6memory10deallocateEPv(ptr noundef nonnull %3)
          to label %_ZN15expr2polynomialD2Ev.exit unwind label %terminate.lpad.i

terminate.lpad.i:                                 ; preds = %if.end.i.i
  %4 = landingpad { ptr, i32 }
          catch ptr null
  %5 = extractvalue { ptr, i32 } %4, 0
  tail call void @__clang_call_terminate(ptr %5) #19
  unreachable

_ZN15expr2polynomialD2Ev.exit:                    ; preds = %_ZN7svectorIbjED2Ev.exit, %if.end.i.i
  ret void
}